target datalayout = "e-m:e-p270:32:32-p271:32:32-p272:64:64-i64:64-i128:128-f80:128-n8:16:32:64-S128"
target triple = "x86_64-pc-linux-gnu"

%"class.gmx::NoseHooverChainsData" = type <{ %"class.gmx::ICheckpointHelperClient", %"class.std::__cxx11::basic_string", %"class.std::vector.20", i32, [4 x i8] }>
%"class.gmx::ICheckpointHelperClient" = type { ptr }
%"class.std::__cxx11::basic_string" = type { %"struct.std::__cxx11::basic_string<char>::_Alloc_hider", i64, %union.anon }
%"struct.std::__cxx11::basic_string<char>::_Alloc_hider" = type { ptr }
%union.anon = type { i64, [8 x i8] }
%"class.std::vector.20" = type { %"struct.std::_Vector_base.21" }
%"struct.std::_Vector_base.21" = type { %"struct.std::_Vector_base<gmx::NoseHooverGroup, std::allocator<gmx::NoseHooverGroup>>::_Vector_impl" }
%"struct.std::_Vector_base<gmx::NoseHooverGroup, std::allocator<gmx::NoseHooverGroup>>::_Vector_impl" = type { %"struct.std::_Vector_base<gmx::NoseHooverGroup, std::allocator<gmx::NoseHooverGroup>>::_Vector_impl_data" }
%"struct.std::_Vector_base<gmx::NoseHooverGroup, std::allocator<gmx::NoseHooverGroup>>::_Vector_impl_data" = type { ptr, ptr, ptr }
%"class.gmx::NoseHooverGroup" = type { float, float, float, i32, float, %"class.std::vector", %"class.std::vector", double, %"class.std::vector", float, float }
%"class.std::vector" = type { %"struct.std::_Vector_base" }
%"struct.std::_Vector_base" = type { %"struct.std::_Vector_base<float, std::allocator<float>>::_Vector_impl" }
%"struct.std::_Vector_base<float, std::allocator<float>>::_Vector_impl" = type { %"struct.std::_Vector_base<float, std::allocator<float>>::_Vector_impl_data" }
%"struct.std::_Vector_base<float, std::allocator<float>>::_Vector_impl_data" = type { ptr, ptr, ptr }
%"class.gmx::ArrayRef" = type { %"struct.gmx::ArrayRefIter", %"struct.gmx::ArrayRefIter" }
%"struct.gmx::ArrayRefIter" = type { ptr }

; Function Attrs: mustprogress nounwind uwtable
define linkonce_odr noundef nonnull align 4 dereferenceable(4) ptr @_ZNK3gmx12ArrayRefIterIKfEdeEv(ptr noundef nonnull align 8 dereferenceable(8) %0) #0 comdat align 2 {
  %2 = alloca ptr, align 8
  store ptr %0, ptr %2, align 8, !tbaa !154
  %3 = load ptr, ptr %2, align 8
  %4 = getelementptr inbounds nuw %"struct.gmx::ArrayRefIter", ptr %3, i32 0, i32 0
  %5 = load ptr, ptr %4, align 8, !tbaa !156
  ret ptr %5
}

; Function Attrs: mustprogress nounwind uwtable
define linkonce_odr noundef nonnull align 8 dereferenceable(8) ptr @_ZN3gmx12ArrayRefIterIKfEpLEl(ptr noundef nonnull align 8 dereferenceable(8) %0, i64 noundef %1) #0 comdat align 2 {
  %3 = alloca ptr, align 8
  %4 = alloca i64, align 8
  store ptr %0, ptr %3, align 8, !tbaa !154
  store i64 %1, ptr %4, align 8, !tbaa !39
  %5 = load ptr, ptr %3, align 8
  %6 = load i64, ptr %4, align 8, !tbaa !39
  %7 = getelementptr inbounds nuw %"struct.gmx::ArrayRefIter", ptr %5, i32 0, i32 0
  %8 = load ptr, ptr %7, align 8, !tbaa !156
  %9 = getelementptr inbounds float, ptr %8, i64 %6
  store ptr %9, ptr %7, align 8, !tbaa !156
  ret ptr %5
}

; Function Attrs: mustprogress nounwind uwtable
define linkonce_odr noundef nonnull align 8 dereferenceable(8) ptr @_ZNK3gmx5boost14stl_interfaces2v118iterator_interfaceINS_12ArrayRefIterIKfEESt26random_access_iterator_tagS5_RS5_PS5_lvE7derivedEv(ptr noundef nonnull align 1 dereferenceable(1) %0) #0 comdat align 2 {
  %2 = alloca ptr, align 8
  store ptr %0, ptr %2, align 8, !tbaa !152
  %3 = load ptr, ptr %2, align 8
  ret ptr %3
}

; Function Attrs: mustprogress nounwind uwtable
define linkonce_odr noundef float @_ZN3gmx6squareIfEET_S1_(float noundef %0) #0 comdat {
  %2 = alloca float, align 4
  store float %0, ptr %2, align 4, !tbaa !65
  %3 = load float, ptr %2, align 4, !tbaa !65
  %4 = load float, ptr %2, align 4, !tbaa !65
  %5 = fmul float %3, %4
  ret float %5
}

; Function Attrs: mustprogress nounwind uwtable
define linkonce_odr noundef nonnull align 4 dereferenceable(4) ptr @_ZNSt6vectorIfSaIfEEixEm(ptr noundef nonnull align 8 dereferenceable(24) %0, i64 noundef %1) #0 comdat align 2 {
  %3 = alloca ptr, align 8
  %4 = alloca i64, align 8
  store ptr %0, ptr %3, align 8, !tbaa !85
  store i64 %1, ptr %4, align 8, !tbaa !39
  %5 = load ptr, ptr %3, align 8
  %6 = getelementptr inbounds nuw %"struct.std::_Vector_base", ptr %5, i32 0, i32 0
  %7 = getelementptr inbounds nuw %"struct.std::_Vector_base<float, std::allocator<float>>::_Vector_impl_data", ptr %6, i32 0, i32 0
  %8 = load ptr, ptr %7, align 8, !tbaa !90
  %9 = load i64, ptr %4, align 8, !tbaa !39
  %10 = getelementptr inbounds nuw float, ptr %8, i64 %9
  ret ptr %10
}

; Function Attrs: inlinehint mustprogress nounwind uwtable
define linkonce_odr noundef zeroext i1 @_ZN3gmx10timesCloseEdd(double noundef %0, double noundef %1) #2 comdat {
  %3 = alloca double, align 8
  %4 = alloca double, align 8
  %5 = alloca float, align 4
  store double %0, ptr %3, align 8, !tbaa !41
  store double %1, ptr %4, align 8, !tbaa !41
  call void @llvm.lifetime.start.p0(i64 4, ptr %5) #21
  store float 0x3EB0C6F7A0000000, ptr %5, align 4, !tbaa !65
  %6 = load double, ptr %3, align 8, !tbaa !41
  %7 = load double, ptr %4, align 8, !tbaa !41
  %8 = fsub double %6, %7
  %9 = load double, ptr %3, align 8, !tbaa !41
  %10 = load double, ptr %4, align 8, !tbaa !41
  %11 = fsub double %9, %10
  %12 = fmul double %8, %11
  %13 = fcmp olt double %12, 0x3D71979980000000
  call void @llvm.lifetime.end.p0(i64 4, ptr %5) #21
  ret i1 %13
}

; Function Attrs: mustprogress nounwind uwtable
define linkonce_odr noundef i64 @_ZSt6lroundf(float noundef %0) #0 comdat {
  %2 = alloca float, align 4
  store float %0, ptr %2, align 4, !tbaa !65
  %3 = load float, ptr %2, align 4, !tbaa !65
  %4 = call i64 @lroundf(float noundef %3) #21, !tbaa !64
  ret i64 %4
}

; Function Attrs: mustprogress nounwind uwtable
define linkonce_odr noundef nonnull align 4 dereferenceable(4) ptr @_ZNK3gmx5boost14stl_interfaces2v118iterator_interfaceINS_12ArrayRefIterIKfEESt26random_access_iterator_tagS5_RS5_PS5_lvEixIS6_EEDTcmpLclsr3stdE7declvalIRT_EEfp_declsr3stdE7declvalISD_EEEl(ptr noundef nonnull align 1 dereferenceable(1) %0, i64 noundef %1) #0 comdat align 2 {
  %3 = alloca ptr, align 8
  %4 = alloca i64, align 8
  %5 = alloca %"struct.gmx::ArrayRefIter", align 8
  store ptr %0, ptr %3, align 8, !tbaa !152
  store i64 %1, ptr %4, align 8, !tbaa !39
  %6 = load ptr, ptr %3, align 8
  call void @llvm.lifetime.start.p0(i64 8, ptr %5) #21
  %7 = call noundef nonnull align 8 dereferenceable(8) ptr @_ZNK3gmx5boost14stl_interfaces2v118iterator_interfaceINS_12ArrayRefIterIKfEESt26random_access_iterator_tagS5_RS5_PS5_lvE7derivedEv(ptr noundef nonnull align 1 dereferenceable(1) %6) #21
  call void @llvm.memcpy.p0.p0.i64(ptr align 8 %5, ptr align 8 %7, i64 8, i1 false)
  %8 = load i64, ptr %4, align 8, !tbaa !39
  %9 = call noundef nonnull align 8 dereferenceable(8) ptr @_ZN3gmx12ArrayRefIterIKfEpLEl(ptr noundef nonnull align 8 dereferenceable(8) %5, i64 noundef %8) #21
  %10 = call noundef nonnull align 4 dereferenceable(4) ptr @_ZNK3gmx12ArrayRefIterIKfEdeEv(ptr noundef nonnull align 8 dereferenceable(8) %5) #21
  call void @llvm.lifetime.end.p0(i64 8, ptr %5) #21
  ret ptr %10
}

; Function Attrs: mustprogress uwtable
define void @_ZN3gmx15NoseHooverGroup17calculateIntegralEv(ptr noundef nonnull align 8 dereferenceable(112) %0) #1 align 2 {
  %2 = alloca ptr, align 8
  %3 = alloca i32, align 4
  %4 = alloca float, align 4
  store ptr %0, ptr %2, align 8, !tbaa !34
  %5 = load ptr, ptr %2, align 8
  %6 = getelementptr inbounds nuw %"class.gmx::NoseHooverGroup", ptr %5, i32 0, i32 7
  store double 0.000000e+00, ptr %6, align 8, !tbaa !78
  call void @llvm.lifetime.start.p0(i64 4, ptr %3) #21
  store i32 0, ptr %3, align 4, !tbaa !64
  br label %7

7:                                                ; preds = %53, %1
  %8 = load i32, ptr %3, align 4, !tbaa !64
  %9 = getelementptr inbounds nuw %"class.gmx::NoseHooverGroup", ptr %5, i32 0, i32 3
  %10 = load i32, ptr %9, align 4, !tbaa !76
  %11 = icmp slt i32 %8, %10
  br i1 %11, label %13, label %12

12:                                               ; preds = %7
  call void @llvm.lifetime.end.p0(i64 4, ptr %3) #21
  br label %56

13:                                               ; preds = %7
  call void @llvm.lifetime.start.p0(i64 4, ptr %4) #21
  %14 = load i32, ptr %3, align 4, !tbaa !64
  %15 = icmp eq i32 %14, 0
  br i1 %15, label %16, label %19

16:                                               ; preds = %13
  %17 = getelementptr inbounds nuw %"class.gmx::NoseHooverGroup", ptr %5, i32 0, i32 2
  %18 = load float, ptr %17, align 8, !tbaa !75
  br label %20

19:                                               ; preds = %13
  br label %20

20:                                               ; preds = %19, %16
  %21 = phi float [ %18, %16 ], [ 1.000000e+00, %19 ]
  store float %21, ptr %4, align 4, !tbaa !65
  %22 = getelementptr inbounds nuw %"class.gmx::NoseHooverGroup", ptr %5, i32 0, i32 6
  %23 = load i32, ptr %3, align 4, !tbaa !64
  %24 = sext i32 %23 to i64
  %25 = call noundef nonnull align 4 dereferenceable(4) ptr @_ZNSt6vectorIfSaIfEEixEm(ptr noundef nonnull align 8 dereferenceable(24) %22, i64 noundef %24) #21
  %26 = load float, ptr %25, align 4, !tbaa !65
  %27 = call noundef float @_ZN3gmx6squareIfEET_S1_(float noundef %26)
  %28 = fpext float %27 to double
  %29 = fmul double 5.000000e-01, %28
  %30 = getelementptr inbounds nuw %"class.gmx::NoseHooverGroup", ptr %5, i32 0, i32 8
  %31 = load i32, ptr %3, align 4, !tbaa !64
  %32 = sext i32 %31 to i64
  %33 = call noundef nonnull align 4 dereferenceable(4) ptr @_ZNSt6vectorIfSaIfEEixEm(ptr noundef nonnull align 8 dereferenceable(24) %30, i64 noundef %32) #21
  %34 = load float, ptr %33, align 4, !tbaa !65
  %35 = fpext float %34 to double
  %36 = fdiv double %29, %35
  %37 = load float, ptr %4, align 4, !tbaa !65
  %38 = getelementptr inbounds nuw %"class.gmx::NoseHooverGroup", ptr %5, i32 0, i32 5
  %39 = load i32, ptr %3, align 4, !tbaa !64
  %40 = sext i32 %39 to i64
  %41 = call noundef nonnull align 4 dereferenceable(4) ptr @_ZNSt6vectorIfSaIfEEixEm(ptr noundef nonnull align 8 dereferenceable(24) %38, i64 noundef %40) #21
  %42 = load float, ptr %41, align 4, !tbaa !65
  %43 = fmul float %37, %42
  %44 = fpext float %43 to double
  %45 = fmul double %44, 0x3F81072C483AF26D
  %46 = getelementptr inbounds nuw %"class.gmx::NoseHooverGroup", ptr %5, i32 0, i32 0
  %47 = load float, ptr %46, align 8, !tbaa !68
  %48 = fpext float %47 to double
  %49 = call double @llvm.fmuladd.f64(double %45, double %48, double %36)
  %50 = getelementptr inbounds nuw %"class.gmx::NoseHooverGroup", ptr %5, i32 0, i32 7
  %51 = load double, ptr %50, align 8, !tbaa !78
  %52 = fadd double %51, %49
  store double %52, ptr %50, align 8, !tbaa !78
  call void @llvm.lifetime.end.p0(i64 4, ptr %4) #21
  br label %53

53:                                               ; preds = %20
  %54 = load i32, ptr %3, align 4, !tbaa !64
  %55 = add nsw i32 %54, 1
  store i32 %55, ptr %3, align 4, !tbaa !64
  br label %7, !llvm.loop !680

56:                                               ; preds = %12
  %57 = getelementptr inbounds nuw %"class.gmx::NoseHooverGroup", ptr %5, i32 0, i32 9
  %58 = load float, ptr %57, align 8, !tbaa !79
  %59 = getelementptr inbounds nuw %"class.gmx::NoseHooverGroup", ptr %5, i32 0, i32 10
  store float %58, ptr %59, align 4, !tbaa !80
  ret void
}

; Function Attrs: inlinehint mustprogress uwtable
define linkonce_odr noundef zeroext i1 @_ZNK3gmx15NoseHooverGroup24isAtFullCouplingTimeStepEv(ptr noundef nonnull align 8 dereferenceable(112) %0) #8 comdat align 2 {
  %2 = alloca ptr, align 8
  store ptr %0, ptr %2, align 8, !tbaa !34
  %3 = load ptr, ptr %2, align 8
  %4 = getelementptr inbounds nuw %"class.gmx::NoseHooverGroup", ptr %3, i32 0, i32 9
  %5 = load float, ptr %4, align 8, !tbaa !79
  %6 = getelementptr inbounds nuw %"class.gmx::NoseHooverGroup", ptr %3, i32 0, i32 4
  %7 = load float, ptr %6, align 8, !tbaa !77
  %8 = fdiv float %5, %7
  %9 = call noundef i64 @_ZSt6lroundf(float noundef %8)
  %10 = sitofp i64 %9 to float
  %11 = getelementptr inbounds nuw %"class.gmx::NoseHooverGroup", ptr %3, i32 0, i32 4
  %12 = load float, ptr %11, align 8, !tbaa !77
  %13 = fmul float %10, %12
  %14 = fpext float %13 to double
  %15 = getelementptr inbounds nuw %"class.gmx::NoseHooverGroup", ptr %3, i32 0, i32 9
  %16 = load float, ptr %15, align 8, !tbaa !79
  %17 = fpext float %16 to double
  %18 = call noundef zeroext i1 @_ZN3gmx10timesCloseEdd(double noundef %14, double noundef %17)
  ret i1 %18
}

; Function Attrs: mustprogress nounwind uwtable
define linkonce_odr noundef nonnull align 4 dereferenceable(4) ptr @_ZNK3gmx8ArrayRefIKfEixEm(ptr noundef nonnull align 8 dereferenceable(16) %0, i64 noundef %1) #0 comdat align 2 {
  %3 = alloca ptr, align 8
  %4 = alloca i64, align 8
  store ptr %0, ptr %3, align 8, !tbaa !129
  store i64 %1, ptr %4, align 8, !tbaa !39
  %5 = load ptr, ptr %3, align 8
  %6 = getelementptr inbounds nuw %"class.gmx::ArrayRef", ptr %5, i32 0, i32 0
  %7 = load i64, ptr %4, align 8, !tbaa !39
  %8 = call noundef nonnull align 4 dereferenceable(4) ptr @_ZNK3gmx5boost14stl_interfaces2v118iterator_interfaceINS_12ArrayRefIterIKfEESt26random_access_iterator_tagS5_RS5_PS5_lvEixIS6_EEDTcmpLclsr3stdE7declvalIRT_EEfp_declsr3stdE7declvalISD_EEEl(ptr noundef nonnull align 1 dereferenceable(1) %6, i64 noundef %7) #21
  ret ptr %8
}

; Function Attrs: mustprogress nounwind uwtable
define linkonce_odr noundef nonnull align 8 dereferenceable(112) ptr @_ZNSt6vectorIN3gmx15NoseHooverGroupESaIS1_EEixEm(ptr noundef nonnull align 8 dereferenceable(24) %0, i64 noundef %1) #0 comdat align 2 {
  %3 = alloca ptr, align 8
  %4 = alloca i64, align 8
  store ptr %0, ptr %3, align 8, !tbaa !32
  store i64 %1, ptr %4, align 8, !tbaa !39
  %5 = load ptr, ptr %3, align 8
  %6 = getelementptr inbounds nuw %"struct.std::_Vector_base.21", ptr %5, i32 0, i32 0
  %7 = getelementptr inbounds nuw %"struct.std::_Vector_base<gmx::NoseHooverGroup, std::allocator<gmx::NoseHooverGroup>>::_Vector_impl_data", ptr %6, i32 0, i32 0
  %8 = load ptr, ptr %7, align 8, !tbaa !131
  %9 = load i64, ptr %4, align 8, !tbaa !39
  %10 = getelementptr inbounds nuw %"class.gmx::NoseHooverGroup", ptr %8, i64 %9
  ret ptr %10
}

; Function Attrs: mustprogress uwtable
define void @_ZN3gmx20NoseHooverChainsData26updateReferenceTemperatureENS_8ArrayRefIKfEENS_35ReferenceTemperatureChangeAlgorithmE(ptr noundef nonnull align 8 dereferenceable(72) %0, ptr %1, ptr %2, i32 noundef %3) #1 align 2 {
  %5 = alloca %"class.gmx::ArrayRef", align 8
  %6 = alloca ptr, align 8
  %7 = alloca i32, align 4
  %8 = alloca i32, align 4
  %9 = getelementptr inbounds nuw { ptr, ptr }, ptr %5, i32 0, i32 0
  store ptr %1, ptr %9, align 8
  %10 = getelementptr inbounds nuw { ptr, ptr }, ptr %5, i32 0, i32 1
  store ptr %2, ptr %10, align 8
  store ptr %0, ptr %6, align 8, !tbaa !4
  store i32 %3, ptr %7, align 4, !tbaa !675
  %11 = load ptr, ptr %6, align 8
  call void @llvm.lifetime.start.p0(i64 4, ptr %8) #21
  store i32 0, ptr %8, align 4, !tbaa !64
  br label %12

12:                                               ; preds = %38, %4
  %13 = load i32, ptr %8, align 4, !tbaa !64
  %14 = getelementptr inbounds nuw %"class.gmx::NoseHooverChainsData", ptr %11, i32 0, i32 3
  %15 = load i32, ptr %14, align 8, !tbaa !111
  %16 = icmp slt i32 %13, %15
  br i1 %16, label %18, label %17

17:                                               ; preds = %12
  call void @llvm.lifetime.end.p0(i64 4, ptr %8) #21
  br label %41

18:                                               ; preds = %12
  %19 = getelementptr inbounds nuw %"class.gmx::NoseHooverChainsData", ptr %11, i32 0, i32 2
  %20 = load i32, ptr %8, align 4, !tbaa !64
  %21 = sext i32 %20 to i64
  %22 = call noundef nonnull align 8 dereferenceable(112) ptr @_ZNSt6vectorIN3gmx15NoseHooverGroupESaIS1_EEixEm(ptr noundef nonnull align 8 dereferenceable(24) %19, i64 noundef %21) #21
  %23 = load i32, ptr %8, align 4, !tbaa !64
  %24 = sext i32 %23 to i64
  %25 = call noundef nonnull align 4 dereferenceable(4) ptr @_ZNK3gmx8ArrayRefIKfEixEm(ptr noundef nonnull align 8 dereferenceable(16) %5, i64 noundef %24)
  %26 = load float, ptr %25, align 4, !tbaa !65
  call void @_ZN3gmx15NoseHooverGroup26updateReferenceTemperatureEf(ptr noundef nonnull align 8 dereferenceable(112) %22, float noundef %26)
  %27 = getelementptr inbounds nuw %"class.gmx::NoseHooverChainsData", ptr %11, i32 0, i32 2
  %28 = load i32, ptr %8, align 4, !tbaa !64
  %29 = sext i32 %28 to i64
  %30 = call noundef nonnull align 8 dereferenceable(112) ptr @_ZNSt6vectorIN3gmx15NoseHooverGroupESaIS1_EEixEm(ptr noundef nonnull align 8 dereferenceable(24) %27, i64 noundef %29) #21
  %31 = call noundef zeroext i1 @_ZNK3gmx15NoseHooverGroup24isAtFullCouplingTimeStepEv(ptr noundef nonnull align 8 dereferenceable(112) %30)
  br i1 %31, label %32, label %37

32:                                               ; preds = %18
  %33 = getelementptr inbounds nuw %"class.gmx::NoseHooverChainsData", ptr %11, i32 0, i32 2
  %34 = load i32, ptr %8, align 4, !tbaa !64
  %35 = sext i32 %34 to i64
  %36 = call noundef nonnull align 8 dereferenceable(112) ptr @_ZNSt6vectorIN3gmx15NoseHooverGroupESaIS1_EEixEm(ptr noundef nonnull align 8 dereferenceable(24) %33, i64 noundef %35) #21
  call void @_ZN3gmx15NoseHooverGroup17calculateIntegralEv(ptr noundef nonnull align 8 dereferenceable(112) %36)
  br label %37

37:                                               ; preds = %32, %18
  br label %38

38:                                               ; preds = %37
  %39 = load i32, ptr %8, align 4, !tbaa !64
  %40 = add nsw i32 %39, 1
  store i32 %40, ptr %8, align 4, !tbaa !64
  br label %12, !llvm.loop !677

41:                                               ; preds = %17
  ret void
}