; Function Attrs: mustprogress uwtable
define void @_ZN3gmx20NoseHooverChainsData26updateReferenceTemperatureENS_8ArrayRefIKfEENS_35ReferenceTemperatureChangeAlgorithmE(ptr noundef nonnull readonly align 8 captures(none) dereferenceable(72) %0, ptr readonly captures(none) %1, ptr readnone captures(none) %2, i32 %3) local_unnamed_addr #1 align 2 {
  %5 = getelementptr inbounds nuw i8, ptr %0, i64 64
  %6 = load i32, ptr %5, align 8, !tbaa !92
  %7 = icmp sgt i32 %6, 0
  br i1 %7, label %.lr.ph, label %._crit_edge

.lr.ph:                                           ; preds = %4
  %8 = getelementptr inbounds nuw i8, ptr %0, i64 40
  %.pre = load ptr, ptr %8, align 8, !tbaa !107
  br label %9

._crit_edge:                                      ; preds = %65, %4
  ret void

9:                                                ; preds = %.lr.ph, %65
  %10 = phi ptr [ %.pre, %.lr.ph ], [ %14, %65 ]
  %indvars.iv = phi i64 [ 0, %.lr.ph ], [ %indvars.iv.next, %65 ]
  %11 = getelementptr inbounds nuw %"class.gmx::NoseHooverGroup", ptr %10, i64 %indvars.iv
  %12 = getelementptr inbounds nuw float, ptr %1, i64 %indvars.iv
  %13 = load float, ptr %12, align 4, !tbaa !47
  tail call void @_ZN3gmx15NoseHooverGroup26updateReferenceTemperatureEf(ptr noundef nonnull align 8 dereferenceable(112) %11, float noundef %13)
  %14 = load ptr, ptr %8, align 8, !tbaa !107
  %15 = getelementptr inbounds nuw %"class.gmx::NoseHooverGroup", ptr %14, i64 %indvars.iv
  %16 = getelementptr inbounds nuw i8, ptr %15, i64 104
  %17 = load float, ptr %16, align 8, !tbaa !50
  %18 = getelementptr inbounds nuw i8, ptr %15, i64 16
  %19 = load float, ptr %18, align 8, !tbaa !83
  %20 = fdiv float %17, %19
  %21 = tail call noundef i64 @lroundf(float noundef %20) #30, !tbaa !86
  %22 = sitofp i64 %21 to float
  %23 = fmul float %19, %22
  %24 = fpext float %23 to double
  %25 = fpext float %17 to double
  %26 = fsub double %24, %25
  %27 = fmul double %26, %26
  %28 = fcmp olt double %27, 0x3D71979980000000
  br i1 %28, label %29, label %65

29:                                               ; preds = %9
  %30 = getelementptr inbounds nuw i8, ptr %15, i64 72
  store double 0.000000e+00, ptr %30, align 8, !tbaa !35
  %31 = getelementptr inbounds nuw i8, ptr %15, i64 12
  %32 = load i32, ptr %31, align 4, !tbaa !44
  %33 = icmp sgt i32 %32, 0
  br i1 %33, label %.lr.ph.i, label %_ZN3gmx15NoseHooverGroup17calculateIntegralEv.exit

.lr.ph.i:                                         ; preds = %29
  %34 = getelementptr inbounds nuw i8, ptr %15, i64 8
  %35 = load float, ptr %34, align 8
  %36 = getelementptr inbounds nuw i8, ptr %15, i64 48
  %37 = load ptr, ptr %36, align 8, !tbaa !45
  %38 = getelementptr inbounds nuw i8, ptr %15, i64 80
  %39 = load ptr, ptr %38, align 8, !tbaa !45
  %40 = getelementptr inbounds nuw i8, ptr %15, i64 24
  %41 = load ptr, ptr %40, align 8, !tbaa !45
  %42 = load float, ptr %15, align 8, !tbaa !46
  %43 = fpext float %42 to double
  %wide.trip.count.i = zext nneg i32 %32 to i64
  br label %44

._crit_edge.i:                                    ; preds = %44
  store double %63, ptr %30, align 8, !tbaa !35
  br label %_ZN3gmx15NoseHooverGroup17calculateIntegralEv.exit

44:                                               ; preds = %44, %.lr.ph.i
  %indvars.iv.i = phi i64 [ 0, %.lr.ph.i ], [ %indvars.iv.next.i, %44 ]
  %45 = phi double [ 0.000000e+00, %.lr.ph.i ], [ %63, %44 ]
  %46 = icmp eq i64 %indvars.iv.i, 0
  %47 = select i1 %46, float %35, float 1.000000e+00
  %48 = getelementptr inbounds nuw float, ptr %37, i64 %indvars.iv.i
  %49 = load float, ptr %48, align 4, !tbaa !47
  %50 = fmul float %49, %49
  %51 = fpext float %50 to double
  %52 = fmul double %51, 5.000000e-01
  %53 = getelementptr inbounds nuw float, ptr %39, i64 %indvars.iv.i
  %54 = load float, ptr %53, align 4, !tbaa !47
  %55 = fpext float %54 to double
  %56 = fdiv double %52, %55
  %57 = getelementptr inbounds nuw float, ptr %41, i64 %indvars.iv.i
  %58 = load float, ptr %57, align 4, !tbaa !47
  %59 = fmul float %47, %58
  %60 = fpext float %59 to double
  %61 = fmul double %60, 0x3F81072C483AF26D
  %62 = tail call double @llvm.fmuladd.f64(double %61, double %43, double %56)
  %63 = fadd double %45, %62
  %indvars.iv.next.i = add nuw nsw i64 %indvars.iv.i, 1
  %exitcond.not.i = icmp eq i64 %indvars.iv.next.i, %wide.trip.count.i
  br i1 %exitcond.not.i, label %._crit_edge.i, label %44, !llvm.loop !48

_ZN3gmx15NoseHooverGroup17calculateIntegralEv.exit: ; preds = %29, %._crit_edge.i
  %64 = getelementptr inbounds nuw i8, ptr %15, i64 108
  store float %17, ptr %64, align 4, !tbaa !51
  br label %65

65:                                               ; preds = %9, %_ZN3gmx15NoseHooverGroup17calculateIntegralEv.exit
  %indvars.iv.next = add nuw nsw i64 %indvars.iv, 1
  %66 = load i32, ptr %5, align 8, !tbaa !92
  %67 = sext i32 %66 to i64
  %68 = icmp slt i64 %indvars.iv.next, %67
  br i1 %68, label %9, label %._crit_edge, !llvm.loop !333
}